target datalayout = "e-m:e-p270:32:32-p271:32:32-p272:64:64-i64:64-i128:128-f80:128-n8:16:32:64-S128"
target triple = "x86_64-pc-linux-gnu"

%struct.pmix_object_t = type { %union.pthread_mutex_t, ptr, i32, %struct.pmix_tma }
%union.pthread_mutex_t = type { %struct.__pthread_mutex_s }
%struct.__pthread_mutex_s = type { i32, i32, i32, i32, i32, i16, i16, %struct.__pthread_internal_list }
%struct.__pthread_internal_list = type { ptr, ptr }
%struct.pmix_tma = type { ptr, ptr, ptr, ptr, ptr, ptr, ptr, ptr }
%struct.pmix_list_t = type { %struct.pmix_object_t, %struct.pmix_list_item_t, i64 }
%struct.pmix_list_item_t = type { %struct.pmix_object_t, ptr, ptr, i32 }
%struct.timeval = type { i64, i64 }
%struct.pmix_class_t = type { ptr, ptr, ptr, ptr, i32, i32, ptr, ptr, i64 }
%struct.event = type { %struct.event_callback, %union.anon.0, i32, ptr, %union.anon.2, i16, i16, %struct.timeval }
%struct.event_callback = type { %struct.anon, i16, i8, i8, %union.anon, ptr }
%struct.anon = type { ptr, ptr }
%union.anon = type { ptr }
%union.anon.0 = type { %struct.anon.1 }
%struct.anon.1 = type { ptr, ptr }
%union.anon.2 = type { %struct.anon.3 }
%struct.anon.3 = type { %struct.anon.4, %struct.timeval }
%struct.anon.4 = type { ptr, ptr }
%struct.pmix_lock_t = type { i32, %struct.pmix_mutex_t, %union.pthread_cond_t, i8 }
%struct.pmix_mutex_t = type { %struct.pmix_object_t, %union.pthread_mutex_t }
%union.pthread_cond_t = type { %struct.__pthread_cond_s }
%struct.__pthread_cond_s = type { %union.__atomic_wide_counter, %union.__atomic_wide_counter, [2 x i32], [2 x i32], i32, i32, [2 x i32] }
%union.__atomic_wide_counter = type { i64 }
%struct.pmix_inventory_rollup_t = type { %struct.pmix_object_t, %struct.pmix_lock_t, %struct.event, i32, i32, i32, %struct.pmix_list_t, ptr, i64, ptr, ptr, ptr, ptr }

@pmix_class_init_epoch = external global i32, align 4
@pmix_list_t_class = external global %struct.pmix_class_t, align 8
@pmix_mutex_t_class = external global %struct.pmix_class_t, align 8

; Function Attrs: inlinehint nounwind uwtable
define internal void @pmix_obj_run_constructors(ptr noundef %0) #4 {
  %2 = alloca ptr, align 8
  %3 = alloca ptr, align 8
  store ptr %0, ptr %2, align 8, !tbaa !89
  call void @llvm.lifetime.start.p0(i64 8, ptr %3) #14
  %4 = load ptr, ptr %2, align 8, !tbaa !89
  %5 = getelementptr inbounds nuw %struct.pmix_object_t, ptr %4, i32 0, i32 1
  %6 = load ptr, ptr %5, align 8, !tbaa !82
  %7 = getelementptr inbounds nuw %struct.pmix_class_t, ptr %6, i32 0, i32 6
  %8 = load ptr, ptr %7, align 8, !tbaa !142
  store ptr %8, ptr %3, align 8, !tbaa !8
  br label %9

9:                                                ; preds = %13, %1
  %10 = load ptr, ptr %3, align 8, !tbaa !8
  %11 = load ptr, ptr %10, align 8, !tbaa !8
  %12 = icmp ne ptr null, %11
  br i1 %12, label %13, label %19

13:                                               ; preds = %9
  %14 = load ptr, ptr %3, align 8, !tbaa !8
  %15 = load ptr, ptr %14, align 8, !tbaa !8
  %16 = load ptr, ptr %2, align 8, !tbaa !89
  call void %15(ptr noundef %16)
  %17 = load ptr, ptr %3, align 8, !tbaa !8
  %18 = getelementptr inbounds nuw ptr, ptr %17, i32 1
  store ptr %18, ptr %3, align 8, !tbaa !8
  br label %9, !llvm.loop !143

19:                                               ; preds = %9
  call void @llvm.lifetime.end.p0(i64 8, ptr %3) #14
  ret void
}

; Function Attrs: inlinehint nounwind uwtable
define internal void @pmix_obj_construct_tma(ptr noundef %0, ptr noundef %1) #4 {
  %3 = alloca ptr, align 8
  %4 = alloca ptr, align 8
  store ptr %0, ptr %3, align 8, !tbaa !89
  store ptr %1, ptr %4, align 8, !tbaa !132
  %5 = load ptr, ptr %4, align 8, !tbaa !132
  %6 = icmp eq ptr null, %5
  br i1 %6, label %7, label %32

7:                                                ; preds = %2
  %8 = load ptr, ptr %3, align 8, !tbaa !89
  %9 = getelementptr inbounds nuw %struct.pmix_object_t, ptr %8, i32 0, i32 3
  %10 = getelementptr inbounds nuw %struct.pmix_tma, ptr %9, i32 0, i32 0
  store ptr null, ptr %10, align 8, !tbaa !134
  %11 = load ptr, ptr %3, align 8, !tbaa !89
  %12 = getelementptr inbounds nuw %struct.pmix_object_t, ptr %11, i32 0, i32 3
  %13 = getelementptr inbounds nuw %struct.pmix_tma, ptr %12, i32 0, i32 1
  store ptr null, ptr %13, align 8, !tbaa !135
  %14 = load ptr, ptr %3, align 8, !tbaa !89
  %15 = getelementptr inbounds nuw %struct.pmix_object_t, ptr %14, i32 0, i32 3
  %16 = getelementptr inbounds nuw %struct.pmix_tma, ptr %15, i32 0, i32 2
  store ptr null, ptr %16, align 8, !tbaa !136
  %17 = load ptr, ptr %3, align 8, !tbaa !89
  %18 = getelementptr inbounds nuw %struct.pmix_object_t, ptr %17, i32 0, i32 3
  %19 = getelementptr inbounds nuw %struct.pmix_tma, ptr %18, i32 0, i32 3
  store ptr null, ptr %19, align 8, !tbaa !137
  %20 = load ptr, ptr %3, align 8, !tbaa !89
  %21 = getelementptr inbounds nuw %struct.pmix_object_t, ptr %20, i32 0, i32 3
  %22 = getelementptr inbounds nuw %struct.pmix_tma, ptr %21, i32 0, i32 4
  store ptr null, ptr %22, align 8, !tbaa !138
  %23 = load ptr, ptr %3, align 8, !tbaa !89
  %24 = getelementptr inbounds nuw %struct.pmix_object_t, ptr %23, i32 0, i32 3
  %25 = getelementptr inbounds nuw %struct.pmix_tma, ptr %24, i32 0, i32 5
  store ptr null, ptr %25, align 8, !tbaa !91
  %26 = load ptr, ptr %3, align 8, !tbaa !89
  %27 = getelementptr inbounds nuw %struct.pmix_object_t, ptr %26, i32 0, i32 3
  %28 = getelementptr inbounds nuw %struct.pmix_tma, ptr %27, i32 0, i32 6
  store ptr null, ptr %28, align 8, !tbaa !139
  %29 = load ptr, ptr %3, align 8, !tbaa !89
  %30 = getelementptr inbounds nuw %struct.pmix_object_t, ptr %29, i32 0, i32 3
  %31 = getelementptr inbounds nuw %struct.pmix_tma, ptr %30, i32 0, i32 7
  store ptr null, ptr %31, align 8, !tbaa !140
  br label %36

32:                                               ; preds = %2
  %33 = load ptr, ptr %3, align 8, !tbaa !89
  %34 = getelementptr inbounds nuw %struct.pmix_object_t, ptr %33, i32 0, i32 3
  %35 = load ptr, ptr %4, align 8, !tbaa !132
  call void @llvm.memcpy.p0.p0.i64(ptr align 8 %34, ptr align 8 %35, i64 64, i1 false), !tbaa.struct !141
  br label %36

36:                                               ; preds = %32, %7
  ret void
}

; Function Attrs: nounwind uwtable
define internal void @ilcon(ptr noundef %0) #0 {
  %2 = alloca ptr, align 8
  store ptr %0, ptr %2, align 8, !tbaa !8
  br label %3

3:                                                ; preds = %1
  br label %4

4:                                                ; preds = %3
  br label %5

5:                                                ; preds = %4
  br label %6

6:                                                ; preds = %5
  %7 = load i32, ptr @pmix_class_init_epoch, align 4, !tbaa !28
  %8 = load i32, ptr getelementptr inbounds nuw (%struct.pmix_class_t, ptr @pmix_mutex_t_class, i32 0, i32 4), align 8, !tbaa !80
  %9 = icmp ne i32 %7, %8
  br i1 %9, label %10, label %11

10:                                               ; preds = %6
  call void @pmix_class_initialize(ptr noundef @pmix_mutex_t_class)
  br label %11

11:                                               ; preds = %10, %6
  %12 = load ptr, ptr %2, align 8, !tbaa !8
  %13 = getelementptr inbounds nuw %struct.pmix_inventory_rollup_t, ptr %12, i32 0, i32 1
  %14 = getelementptr inbounds nuw %struct.pmix_lock_t, ptr %13, i32 0, i32 1
  %15 = getelementptr inbounds nuw %struct.pmix_object_t, ptr %14, i32 0, i32 1
  store ptr @pmix_mutex_t_class, ptr %15, align 8, !tbaa !82
  %16 = load ptr, ptr %2, align 8, !tbaa !8
  %17 = getelementptr inbounds nuw %struct.pmix_inventory_rollup_t, ptr %16, i32 0, i32 1
  %18 = getelementptr inbounds nuw %struct.pmix_lock_t, ptr %17, i32 0, i32 1
  %19 = getelementptr inbounds nuw %struct.pmix_object_t, ptr %18, i32 0, i32 2
  store i32 1, ptr %19, align 8, !tbaa !83
  %20 = load ptr, ptr %2, align 8, !tbaa !8
  %21 = getelementptr inbounds nuw %struct.pmix_inventory_rollup_t, ptr %20, i32 0, i32 1
  %22 = getelementptr inbounds nuw %struct.pmix_lock_t, ptr %21, i32 0, i32 1
  call void @pmix_obj_construct_tma(ptr noundef %22, ptr noundef null)
  %23 = load ptr, ptr %2, align 8, !tbaa !8
  %24 = getelementptr inbounds nuw %struct.pmix_inventory_rollup_t, ptr %23, i32 0, i32 1
  %25 = getelementptr inbounds nuw %struct.pmix_lock_t, ptr %24, i32 0, i32 1
  call void @pmix_obj_run_constructors(ptr noundef %25)
  br label %26

26:                                               ; preds = %11
  br label %27

27:                                               ; preds = %26
  br label %28

28:                                               ; preds = %27
  %29 = load ptr, ptr %2, align 8, !tbaa !8
  %30 = getelementptr inbounds nuw %struct.pmix_inventory_rollup_t, ptr %29, i32 0, i32 1
  %31 = getelementptr inbounds nuw %struct.pmix_lock_t, ptr %30, i32 0, i32 2
  %32 = call i32 @pthread_cond_init(ptr noundef %31, ptr noundef null) #14
  %33 = load ptr, ptr %2, align 8, !tbaa !8
  %34 = getelementptr inbounds nuw %struct.pmix_inventory_rollup_t, ptr %33, i32 0, i32 1
  %35 = getelementptr inbounds nuw %struct.pmix_lock_t, ptr %34, i32 0, i32 3
  store volatile i8 1, ptr %35, align 8, !tbaa !465
  br label %36

36:                                               ; preds = %28
  %37 = load ptr, ptr %2, align 8, !tbaa !8
  %38 = getelementptr inbounds nuw %struct.pmix_inventory_rollup_t, ptr %37, i32 0, i32 1
  %39 = getelementptr inbounds nuw %struct.pmix_lock_t, ptr %38, i32 0, i32 3
  store volatile i8 0, ptr %39, align 8, !tbaa !465
  %40 = load ptr, ptr %2, align 8, !tbaa !8
  %41 = getelementptr inbounds nuw %struct.pmix_inventory_rollup_t, ptr %40, i32 0, i32 3
  store i32 0, ptr %41, align 8, !tbaa !467
  %42 = load ptr, ptr %2, align 8, !tbaa !8
  %43 = getelementptr inbounds nuw %struct.pmix_inventory_rollup_t, ptr %42, i32 0, i32 4
  store i32 0, ptr %43, align 4, !tbaa !468
  %44 = load ptr, ptr %2, align 8, !tbaa !8
  %45 = getelementptr inbounds nuw %struct.pmix_inventory_rollup_t, ptr %44, i32 0, i32 5
  store i32 0, ptr %45, align 8, !tbaa !469
  br label %46

46:                                               ; preds = %36
  br label %47

47:                                               ; preds = %46
  br label %48

48:                                               ; preds = %47
  %49 = load i32, ptr @pmix_class_init_epoch, align 4, !tbaa !28
  %50 = load i32, ptr getelementptr inbounds nuw (%struct.pmix_class_t, ptr @pmix_list_t_class, i32 0, i32 4), align 8, !tbaa !80
  %51 = icmp ne i32 %49, %50
  br i1 %51, label %52, label %53

52:                                               ; preds = %48
  call void @pmix_class_initialize(ptr noundef @pmix_list_t_class)
  br label %53

53:                                               ; preds = %52, %48
  %54 = load ptr, ptr %2, align 8, !tbaa !8
  %55 = getelementptr inbounds nuw %struct.pmix_inventory_rollup_t, ptr %54, i32 0, i32 6
  %56 = getelementptr inbounds nuw %struct.pmix_object_t, ptr %55, i32 0, i32 1
  store ptr @pmix_list_t_class, ptr %56, align 8, !tbaa !82
  %57 = load ptr, ptr %2, align 8, !tbaa !8
  %58 = getelementptr inbounds nuw %struct.pmix_inventory_rollup_t, ptr %57, i32 0, i32 6
  %59 = getelementptr inbounds nuw %struct.pmix_object_t, ptr %58, i32 0, i32 2
  store i32 1, ptr %59, align 8, !tbaa !83
  %60 = load ptr, ptr %2, align 8, !tbaa !8
  %61 = getelementptr inbounds nuw %struct.pmix_inventory_rollup_t, ptr %60, i32 0, i32 6
  call void @pmix_obj_construct_tma(ptr noundef %61, ptr noundef null)
  %62 = load ptr, ptr %2, align 8, !tbaa !8
  %63 = getelementptr inbounds nuw %struct.pmix_inventory_rollup_t, ptr %62, i32 0, i32 6
  call void @pmix_obj_run_constructors(ptr noundef %63)
  br label %64

64:                                               ; preds = %53
  br label %65

65:                                               ; preds = %64
  br label %66

66:                                               ; preds = %65
  %67 = load ptr, ptr %2, align 8, !tbaa !8
  %68 = getelementptr inbounds nuw %struct.pmix_inventory_rollup_t, ptr %67, i32 0, i32 7
  store ptr null, ptr %68, align 8, !tbaa !470
  %69 = load ptr, ptr %2, align 8, !tbaa !8
  %70 = getelementptr inbounds nuw %struct.pmix_inventory_rollup_t, ptr %69, i32 0, i32 8
  store i64 0, ptr %70, align 8, !tbaa !471
  %71 = load ptr, ptr %2, align 8, !tbaa !8
  %72 = getelementptr inbounds nuw %struct.pmix_inventory_rollup_t, ptr %71, i32 0, i32 9
  store ptr null, ptr %72, align 8, !tbaa !472
  %73 = load ptr, ptr %2, align 8, !tbaa !8
  %74 = getelementptr inbounds nuw %struct.pmix_inventory_rollup_t, ptr %73, i32 0, i32 10
  store ptr null, ptr %74, align 8, !tbaa !473
  %75 = load ptr, ptr %2, align 8, !tbaa !8
  %76 = getelementptr inbounds nuw %struct.pmix_inventory_rollup_t, ptr %75, i32 0, i32 11
  store ptr null, ptr %76, align 8, !tbaa !474
  %77 = load ptr, ptr %2, align 8, !tbaa !8
  %78 = getelementptr inbounds nuw %struct.pmix_inventory_rollup_t, ptr %77, i32 0, i32 12
  store ptr null, ptr %78, align 8, !tbaa !475
  ret void
}