; Function Attrs: nounwind uwtable
define internal void @ilcon(ptr noundef initializes((168, 180), (184, 248)) %0) #0 {
  %2 = load i32, ptr @pmix_class_init_epoch, align 4, !tbaa !23
  %3 = load i32, ptr getelementptr inbounds nuw (i8, ptr @pmix_mutex_t_class, i64 32), align 8, !tbaa !75
  %.not = icmp eq i32 %2, %3
  br i1 %.not, label %5, label %4

4:                                                ; preds = %1
  tail call void @pmix_class_initialize(ptr noundef nonnull @pmix_mutex_t_class) #19
  br label %5

5:                                                ; preds = %4, %1
  %6 = getelementptr inbounds nuw i8, ptr %0, i64 128
  %7 = getelementptr inbounds nuw i8, ptr %0, i64 168
  store ptr @pmix_mutex_t_class, ptr %7, align 8, !tbaa !77
  %8 = getelementptr inbounds nuw i8, ptr %0, i64 176
  store i32 1, ptr %8, align 8, !tbaa !78
  %9 = getelementptr inbounds nuw i8, ptr %0, i64 184
  tail call void @llvm.memset.p0.i64(ptr noundef nonnull align 8 dereferenceable(64) %9, i8 0, i64 64, i1 false)
  %10 = load ptr, ptr getelementptr inbounds nuw (i8, ptr @pmix_mutex_t_class, i64 40), align 8, !tbaa !79
  %11 = load ptr, ptr %10, align 8, !tbaa !80
  %.not6.i = icmp eq ptr %11, null
  br i1 %.not6.i, label %pmix_obj_run_constructors.exit, label %.lr.ph.i

.lr.ph.i:                                         ; preds = %5, %.lr.ph.i
  %12 = phi ptr [ %14, %.lr.ph.i ], [ %11, %5 ]
  %.07.i = phi ptr [ %13, %.lr.ph.i ], [ %10, %5 ]
  tail call void %12(ptr noundef nonnull %6) #19
  %13 = getelementptr inbounds nuw i8, ptr %.07.i, i64 8
  %14 = load ptr, ptr %13, align 8, !tbaa !80
  %.not.i = icmp eq ptr %14, null
  br i1 %.not.i, label %pmix_obj_run_constructors.exit, label %.lr.ph.i, !llvm.loop !81

pmix_obj_run_constructors.exit:                   ; preds = %.lr.ph.i, %5
  %15 = getelementptr inbounds nuw i8, ptr %0, i64 288
  %16 = tail call i32 @pthread_cond_init(ptr noundef nonnull %15, ptr noundef null) #19
  %17 = getelementptr inbounds nuw i8, ptr %0, i64 336
  store volatile i8 1, ptr %17, align 8, !tbaa !412
  store volatile i8 0, ptr %17, align 8, !tbaa !412
  %18 = getelementptr inbounds nuw i8, ptr %0, i64 472
  store i32 0, ptr %18, align 8, !tbaa !414
  %19 = getelementptr inbounds nuw i8, ptr %0, i64 476
  store i32 0, ptr %19, align 4, !tbaa !415
  %20 = getelementptr inbounds nuw i8, ptr %0, i64 480
  store i32 0, ptr %20, align 8, !tbaa !416
  %21 = load i32, ptr @pmix_class_init_epoch, align 4, !tbaa !23
  %22 = load i32, ptr getelementptr inbounds nuw (i8, ptr @pmix_list_t_class, i64 32), align 8, !tbaa !75
  %.not20 = icmp eq i32 %21, %22
  br i1 %.not20, label %24, label %23

23:                                               ; preds = %pmix_obj_run_constructors.exit
  tail call void @pmix_class_initialize(ptr noundef nonnull @pmix_list_t_class) #19
  br label %24

24:                                               ; preds = %23, %pmix_obj_run_constructors.exit
  %25 = getelementptr inbounds nuw i8, ptr %0, i64 488
  %26 = getelementptr inbounds nuw i8, ptr %0, i64 528
  store ptr @pmix_list_t_class, ptr %26, align 8, !tbaa !77
  %27 = getelementptr inbounds nuw i8, ptr %0, i64 536
  store i32 1, ptr %27, align 8, !tbaa !78
  %28 = getelementptr inbounds nuw i8, ptr %0, i64 544
  tail call void @llvm.memset.p0.i64(ptr noundef nonnull align 8 dereferenceable(64) %28, i8 0, i64 64, i1 false)
  %29 = load ptr, ptr getelementptr inbounds nuw (i8, ptr @pmix_list_t_class, i64 40), align 8, !tbaa !79
  %30 = load ptr, ptr %29, align 8, !tbaa !80
  %.not6.i21 = icmp eq ptr %30, null
  br i1 %.not6.i21, label %pmix_obj_run_constructors.exit25, label %.lr.ph.i22

.lr.ph.i22:                                       ; preds = %24, %.lr.ph.i22
  %31 = phi ptr [ %33, %.lr.ph.i22 ], [ %30, %24 ]
  %.07.i23 = phi ptr [ %32, %.lr.ph.i22 ], [ %29, %24 ]
  tail call void %31(ptr noundef nonnull %25) #19
  %32 = getelementptr inbounds nuw i8, ptr %.07.i23, i64 8
  %33 = load ptr, ptr %32, align 8, !tbaa !80
  %.not.i24 = icmp eq ptr %33, null
  br i1 %.not.i24, label %pmix_obj_run_constructors.exit25, label %.lr.ph.i22, !llvm.loop !81

pmix_obj_run_constructors.exit25:                 ; preds = %.lr.ph.i22, %24
  %34 = getelementptr inbounds nuw i8, ptr %0, i64 760
  tail call void @llvm.memset.p0.i64(ptr noundef nonnull align 8 dereferenceable(48) %34, i8 0, i64 48, i1 false)
  ret void
}